target datalayout = "e-m:e-p270:32:32-p271:32:32-p272:64:64-i64:64-i128:128-f80:128-n8:16:32:64-S128"
target triple = "x86_64-pc-linux-gnu"

%"class.MemAllocator::Allocation" = type <{ ptr, ptr, ptr, i8, i8, [6 x i8], i64, i8, [7 x i8] }>
%class.Thread = type { %class.ThreadShadow.base, i64, [43 x i64], ptr, ptr, i32, ptr, i64, i64, %class.ThreadLocalAllocBuffer, i64, %class.ThreadHeapSampler, %class.ThreadStatisticalInfo, %class.JfrThreadLocal, ptr, ptr, ptr, ptr, ptr, ptr, i64, i32, i32, ptr, i32, i32, i32, i32, i8, ptr }
%class.ThreadShadow.base = type <{ ptr, ptr, ptr, i32 }>
%class.ThreadLocalAllocBuffer = type <{ ptr, ptr, ptr, ptr, ptr, i64, i64, i64, i64, i32, i32, i32, i32, i64, %class.AdaptiveWeightedAverage, [4 x i8] }>
%class.AdaptiveWeightedAverage = type { float, i32, i32, i8, float }
%class.ThreadHeapSampler = type { i64 }
%class.ThreadStatisticalInfo = type { i64, i64 }
%class.JfrThreadLocal = type <{ ptr, ptr, ptr, ptr, ptr, ptr, ptr, ptr, ptr, ptr, %class.RefCountHandle, i64, i64, i64, i64, i64, i64, i64, i64, i64, i64, i64, i32, i32, i32, i16, i8, i8, i8, i8, i8, [5 x i8] }>
%class.RefCountHandle = type { ptr }
%class.MemAllocator = type { ptr, ptr, ptr, i64 }

@UseTLAB = external global i8, align 1
@_ZN8Universe14_collectedHeapE = external global ptr, align 8

; Function Attrs: mustprogress nounwind uwtable
define linkonce_odr hidden noundef i64 @_Z13pointer_deltaPVKvS0_m(ptr noundef %0, ptr noundef %1, i64 noundef %2) #1 comdat {
  %4 = alloca ptr, align 8
  %5 = alloca ptr, align 8
  %6 = alloca i64, align 8
  store ptr %0, ptr %4, align 8
  store ptr %1, ptr %5, align 8
  store i64 %2, ptr %6, align 8
  %7 = load ptr, ptr %4, align 8
  %8 = ptrtoint ptr %7 to i64
  %9 = load ptr, ptr %5, align 8
  %10 = ptrtoint ptr %9 to i64
  %11 = sub i64 %8, %10
  %12 = load i64, ptr %6, align 8
  %13 = udiv i64 %11, %12
  ret i64 %13
}

; Function Attrs: mustprogress nounwind uwtable
define linkonce_odr hidden void @_ZN22ThreadLocalAllocBuffer7set_topEPP12HeapWordImpl(ptr noundef nonnull align 8 dereferenceable(116) %0, ptr noundef %1) #1 comdat align 2 {
  %3 = alloca ptr, align 8
  %4 = alloca ptr, align 8
  store ptr %0, ptr %3, align 8
  store ptr %1, ptr %4, align 8
  %5 = load ptr, ptr %3, align 8
  %6 = load ptr, ptr %4, align 8
  %7 = getelementptr inbounds %class.ThreadLocalAllocBuffer, ptr %5, i32 0, i32 1
  store ptr %6, ptr %7, align 8
  ret void
}

; Function Attrs: mustprogress nounwind uwtable
define linkonce_odr hidden noundef i64 @_Z13pointer_deltaPKP12HeapWordImplS2_(ptr noundef %0, ptr noundef %1) #1 comdat {
  %3 = alloca ptr, align 8
  %4 = alloca ptr, align 8
  store ptr %0, ptr %3, align 8
  store ptr %1, ptr %4, align 8
  %5 = load ptr, ptr %3, align 8
  %6 = load ptr, ptr %4, align 8
  %7 = call noundef i64 @_Z13pointer_deltaPVKvS0_m(ptr noundef %5, ptr noundef %6, i64 noundef 8)
  ret i64 %7
}

; Function Attrs: mustprogress nounwind uwtable
define linkonce_odr hidden noundef ptr @_ZNK22ThreadLocalAllocBuffer3endEv(ptr noundef nonnull align 8 dereferenceable(116) %0) #1 comdat align 2 {
  %2 = alloca ptr, align 8
  store ptr %0, ptr %2, align 8
  %3 = load ptr, ptr %2, align 8
  %4 = getelementptr inbounds %class.ThreadLocalAllocBuffer, ptr %3, i32 0, i32 3
  %5 = load ptr, ptr %4, align 8
  ret ptr %5
}

; Function Attrs: mustprogress nounwind uwtable
define linkonce_odr hidden noundef ptr @_ZNK22ThreadLocalAllocBuffer3topEv(ptr noundef nonnull align 8 dereferenceable(116) %0) #1 comdat align 2 {
  %2 = alloca ptr, align 8
  store ptr %0, ptr %2, align 8
  %3 = load ptr, ptr %2, align 8
  %4 = getelementptr inbounds %class.ThreadLocalAllocBuffer, ptr %3, i32 0, i32 1
  %5 = load ptr, ptr %4, align 8
  ret ptr %5
}

; Function Attrs: mustprogress nounwind uwtable
define linkonce_odr hidden void @_ZNK22ThreadLocalAllocBuffer10invariantsEv(ptr noundef nonnull align 8 dereferenceable(116) %0) #1 comdat align 2 {
  %2 = alloca ptr, align 8
  store ptr %0, ptr %2, align 8
  ret void
}

; Function Attrs: mustprogress nounwind uwtable
define linkonce_odr hidden void @_ZN6Thread20incr_allocated_bytesEl(ptr noundef nonnull align 8 dereferenceable(888) %0, i64 noundef %1) #1 comdat align 2 {
  %3 = alloca ptr, align 8
  %4 = alloca i64, align 8
  store ptr %0, ptr %3, align 8
  store i64 %1, ptr %4, align 8
  %5 = load ptr, ptr %3, align 8
  %6 = load i64, ptr %4, align 8
  %7 = getelementptr inbounds %class.Thread, ptr %5, i32 0, i32 10
  %8 = load i64, ptr %7, align 8
  %9 = add nsw i64 %8, %6
  store i64 %9, ptr %7, align 8
  ret void
}

; Function Attrs: mustprogress nounwind uwtable
define linkonce_odr hidden noundef ptr @_ZN8Universe4heapEv() #1 comdat align 2 {
  %1 = load ptr, ptr @_ZN8Universe14_collectedHeapE, align 8
  ret ptr %1
}

; Function Attrs: mustprogress nounwind uwtable
define linkonce_odr hidden noundef ptr @_ZN22ThreadLocalAllocBuffer8allocateEm(ptr noundef nonnull align 8 dereferenceable(116) %0, i64 noundef %1) #1 comdat align 2 {
  %3 = alloca ptr, align 8
  %4 = alloca ptr, align 8
  %5 = alloca i64, align 8
  %6 = alloca ptr, align 8
  store ptr %0, ptr %4, align 8
  store i64 %1, ptr %5, align 8
  %7 = load ptr, ptr %4, align 8
  call void @_ZNK22ThreadLocalAllocBuffer10invariantsEv(ptr noundef nonnull align 8 dereferenceable(116) %7)
  %8 = call noundef ptr @_ZNK22ThreadLocalAllocBuffer3topEv(ptr noundef nonnull align 8 dereferenceable(116) %7)
  store ptr %8, ptr %6, align 8
  %9 = call noundef ptr @_ZNK22ThreadLocalAllocBuffer3endEv(ptr noundef nonnull align 8 dereferenceable(116) %7)
  %10 = load ptr, ptr %6, align 8
  %11 = call noundef i64 @_Z13pointer_deltaPKP12HeapWordImplS2_(ptr noundef %9, ptr noundef %10)
  %12 = load i64, ptr %5, align 8
  %13 = icmp uge i64 %11, %12
  br i1 %13, label %14, label %19

14:                                               ; preds = %2
  %15 = load ptr, ptr %6, align 8
  %16 = load i64, ptr %5, align 8
  %17 = getelementptr inbounds ptr, ptr %15, i64 %16
  call void @_ZN22ThreadLocalAllocBuffer7set_topEPP12HeapWordImpl(ptr noundef nonnull align 8 dereferenceable(116) %7, ptr noundef %17)
  call void @_ZNK22ThreadLocalAllocBuffer10invariantsEv(ptr noundef nonnull align 8 dereferenceable(116) %7)
  %18 = load ptr, ptr %6, align 8
  store ptr %18, ptr %3, align 8
  br label %20

19:                                               ; preds = %2
  store ptr null, ptr %3, align 8
  br label %20

20:                                               ; preds = %19, %14
  %21 = load ptr, ptr %3, align 8
  ret ptr %21
}

; Function Attrs: mustprogress nounwind uwtable
define linkonce_odr hidden noundef nonnull align 8 dereferenceable(116) ptr @_ZN6Thread4tlabEv(ptr noundef nonnull align 8 dereferenceable(888) %0) #1 comdat align 2 {
  %2 = alloca ptr, align 8
  store ptr %0, ptr %2, align 8
  %3 = load ptr, ptr %2, align 8
  %4 = getelementptr inbounds %class.Thread, ptr %3, i32 0, i32 9
  ret ptr %4
}

; Function Attrs: mustprogress nounwind uwtable
define hidden noundef ptr @_ZNK12MemAllocator25mem_allocate_outside_tlabERNS_10AllocationE(ptr noundef nonnull align 8 dereferenceable(32) %0, ptr noundef nonnull align 8 dereferenceable(41) %1) #1 align 2 {
  %3 = alloca ptr, align 8
  %4 = alloca ptr, align 8
  %5 = alloca ptr, align 8
  %6 = alloca ptr, align 8
  %7 = alloca i64, align 8
  store ptr %0, ptr %4, align 8
  store ptr %1, ptr %5, align 8
  %8 = load ptr, ptr %4, align 8
  %9 = load ptr, ptr %5, align 8
  %10 = getelementptr inbounds %"class.MemAllocator::Allocation", ptr %9, i32 0, i32 4
  store i8 1, ptr %10, align 1
  %11 = call noundef ptr @_ZN8Universe4heapEv()
  %12 = getelementptr inbounds %class.MemAllocator, ptr %8, i32 0, i32 3
  %13 = load i64, ptr %12, align 8
  %14 = load ptr, ptr %5, align 8
  %15 = getelementptr inbounds %"class.MemAllocator::Allocation", ptr %14, i32 0, i32 3
  %16 = load ptr, ptr %11, align 8
  %17 = getelementptr inbounds ptr, ptr %16, i64 2
  %18 = load ptr, ptr %17, align 8
  %19 = call noundef ptr %18(ptr noundef nonnull align 8 dereferenceable(104) %11, i64 noundef %13, ptr noundef %15)
  store ptr %19, ptr %6, align 8
  %20 = load ptr, ptr %6, align 8
  %21 = icmp eq ptr %20, null
  br i1 %21, label %22, label %24

22:                                               ; preds = %2
  %23 = load ptr, ptr %6, align 8
  store ptr %23, ptr %3, align 8
  br label %32

24:                                               ; preds = %2
  %25 = getelementptr inbounds %class.MemAllocator, ptr %8, i32 0, i32 3
  %26 = load i64, ptr %25, align 8
  %27 = mul i64 %26, 8
  store i64 %27, ptr %7, align 8
  %28 = getelementptr inbounds %class.MemAllocator, ptr %8, i32 0, i32 1
  %29 = load ptr, ptr %28, align 8
  %30 = load i64, ptr %7, align 8
  call void @_ZN6Thread20incr_allocated_bytesEl(ptr noundef nonnull align 8 dereferenceable(888) %29, i64 noundef %30)
  %31 = load ptr, ptr %6, align 8
  store ptr %31, ptr %3, align 8
  br label %32

32:                                               ; preds = %24, %22
  %33 = load ptr, ptr %3, align 8
  ret ptr %33
}

; Function Attrs: mustprogress nounwind uwtable
define hidden noundef ptr @_ZNK12MemAllocator29mem_allocate_inside_tlab_fastEv(ptr noundef nonnull align 8 dereferenceable(32) %0) #1 align 2 {
  %2 = alloca ptr, align 8
  store ptr %0, ptr %2, align 8
  %3 = load ptr, ptr %2, align 8
  %4 = getelementptr inbounds %class.MemAllocator, ptr %3, i32 0, i32 1
  %5 = load ptr, ptr %4, align 8
  %6 = call noundef nonnull align 8 dereferenceable(116) ptr @_ZN6Thread4tlabEv(ptr noundef nonnull align 8 dereferenceable(888) %5)
  %7 = getelementptr inbounds %class.MemAllocator, ptr %3, i32 0, i32 3
  %8 = load i64, ptr %7, align 8
  %9 = call noundef ptr @_ZN22ThreadLocalAllocBuffer8allocateEm(ptr noundef nonnull align 8 dereferenceable(116) %6, i64 noundef %8)
  ret ptr %9
}

; Function Attrs: mustprogress nounwind uwtable
define hidden noundef ptr @_ZNK12MemAllocator12mem_allocateERNS_10AllocationE(ptr noundef nonnull align 8 dereferenceable(32) %0, ptr noundef nonnull align 8 dereferenceable(41) %1) #1 align 2 {
  %3 = alloca ptr, align 8
  %4 = alloca ptr, align 8
  %5 = alloca ptr, align 8
  %6 = alloca ptr, align 8
  %7 = alloca ptr, align 8
  store ptr %0, ptr %4, align 8
  store ptr %1, ptr %5, align 8
  %8 = load ptr, ptr %4, align 8
  %9 = load i8, ptr @UseTLAB, align 1
  %10 = trunc i8 %9 to i1
  br i1 %10, label %11, label %18

11:                                               ; preds = %2
  %12 = call noundef ptr @_ZNK12MemAllocator29mem_allocate_inside_tlab_fastEv(ptr noundef nonnull align 8 dereferenceable(32) %8)
  store ptr %12, ptr %6, align 8
  %13 = load ptr, ptr %6, align 8
  %14 = icmp ne ptr %13, null
  br i1 %14, label %15, label %17

15:                                               ; preds = %11
  %16 = load ptr, ptr %6, align 8
  store ptr %16, ptr %3, align 8
  br label %32

17:                                               ; preds = %11
  br label %18

18:                                               ; preds = %17, %2
  %19 = load i8, ptr @UseTLAB, align 1
  %20 = trunc i8 %19 to i1
  br i1 %20, label %21, label %29

21:                                               ; preds = %18
  %22 = load ptr, ptr %5, align 8
  %23 = call noundef ptr @_ZNK12MemAllocator29mem_allocate_inside_tlab_slowERNS_10AllocationE(ptr noundef nonnull align 8 dereferenceable(32) %8, ptr noundef nonnull align 8 dereferenceable(41) %22)
  store ptr %23, ptr %7, align 8
  %24 = load ptr, ptr %7, align 8
  %25 = icmp ne ptr %24, null
  br i1 %25, label %26, label %28

26:                                               ; preds = %21
  %27 = load ptr, ptr %7, align 8
  store ptr %27, ptr %3, align 8
  br label %32

28:                                               ; preds = %21
  br label %29

29:                                               ; preds = %28, %18
  %30 = load ptr, ptr %5, align 8
  %31 = call noundef ptr @_ZNK12MemAllocator25mem_allocate_outside_tlabERNS_10AllocationE(ptr noundef nonnull align 8 dereferenceable(32) %8, ptr noundef nonnull align 8 dereferenceable(41) %30)
  store ptr %31, ptr %3, align 8
  br label %32

32:                                               ; preds = %29, %26, %15
  %33 = load ptr, ptr %3, align 8
  ret ptr %33
}