; Function Attrs: mustprogress nounwind uwtable
define hidden noundef ptr @_ZNK12MemAllocator12mem_allocateERNS_10AllocationE(ptr nocapture noundef nonnull readonly align 8 dereferenceable(32) %0, ptr noundef nonnull align 8 dereferenceable(41) %1) local_unnamed_addr #0 align 2 {
  %3 = load i8, ptr @UseTLAB, align 1
  %4 = trunc i8 %3 to i1
  br i1 %4, label %5, label %20

5:                                                ; preds = %2
  %6 = getelementptr inbounds i8, ptr %0, i64 8
  %7 = load ptr, ptr %6, align 8
  %8 = getelementptr inbounds i8, ptr %0, i64 24
  %9 = load i64, ptr %8, align 8
  %10 = getelementptr inbounds i8, ptr %7, i64 440
  %11 = load ptr, ptr %10, align 8
  %12 = getelementptr inbounds i8, ptr %7, i64 456
  %13 = load ptr, ptr %12, align 8
  %14 = ptrtoint ptr %13 to i64
  %15 = ptrtoint ptr %11 to i64
  %16 = sub i64 %14, %15
  %17 = lshr i64 %16, 3
  %.not.i.i = icmp ult i64 %17, %9
  br i1 %.not.i.i, label %_ZNK12MemAllocator29mem_allocate_inside_tlab_fastEv.exit.thread, label %_ZNK12MemAllocator29mem_allocate_inside_tlab_fastEv.exit

_ZNK12MemAllocator29mem_allocate_inside_tlab_fastEv.exit: ; preds = %5
  %18 = getelementptr inbounds ptr, ptr %11, i64 %9
  store ptr %18, ptr %10, align 8
  %.not = icmp eq ptr %11, null
  br i1 %.not, label %_ZNK12MemAllocator29mem_allocate_inside_tlab_fastEv.exit.thread, label %_ZNK12MemAllocator25mem_allocate_outside_tlabERNS_10AllocationE.exit

_ZNK12MemAllocator29mem_allocate_inside_tlab_fastEv.exit.thread: ; preds = %5, %_ZNK12MemAllocator29mem_allocate_inside_tlab_fastEv.exit
  %19 = tail call noundef ptr @_ZNK12MemAllocator29mem_allocate_inside_tlab_slowERNS_10AllocationE(ptr noundef nonnull align 8 dereferenceable(32) %0, ptr noundef nonnull align 8 dereferenceable(41) %1)
  %.not10 = icmp eq ptr %19, null
  br i1 %.not10, label %20, label %_ZNK12MemAllocator25mem_allocate_outside_tlabERNS_10AllocationE.exit

20:                                               ; preds = %2, %_ZNK12MemAllocator29mem_allocate_inside_tlab_fastEv.exit.thread
  %21 = getelementptr inbounds i8, ptr %1, i64 25
  store i8 1, ptr %21, align 1
  %22 = load ptr, ptr @_ZN8Universe14_collectedHeapE, align 8
  %23 = getelementptr inbounds i8, ptr %0, i64 24
  %24 = load i64, ptr %23, align 8
  %25 = getelementptr inbounds i8, ptr %1, i64 24
  %26 = load ptr, ptr %22, align 8
  %27 = getelementptr inbounds i8, ptr %26, i64 16
  %28 = load ptr, ptr %27, align 8
  %29 = tail call noundef ptr %28(ptr noundef nonnull align 8 dereferenceable(104) %22, i64 noundef %24, ptr noundef nonnull %25) #10
  %30 = icmp eq ptr %29, null
  br i1 %30, label %_ZNK12MemAllocator25mem_allocate_outside_tlabERNS_10AllocationE.exit, label %31

31:                                               ; preds = %20
  %32 = load i64, ptr %23, align 8
  %33 = shl i64 %32, 3
  %34 = getelementptr inbounds i8, ptr %0, i64 8
  %35 = load ptr, ptr %34, align 8
  %36 = getelementptr inbounds i8, ptr %35, i64 552
  %37 = load i64, ptr %36, align 8
  %38 = add nsw i64 %37, %33
  store i64 %38, ptr %36, align 8
  br label %_ZNK12MemAllocator25mem_allocate_outside_tlabERNS_10AllocationE.exit

_ZNK12MemAllocator25mem_allocate_outside_tlabERNS_10AllocationE.exit: ; preds = %31, %20, %_ZNK12MemAllocator29mem_allocate_inside_tlab_fastEv.exit.thread, %_ZNK12MemAllocator29mem_allocate_inside_tlab_fastEv.exit
  %.0 = phi ptr [ %11, %_ZNK12MemAllocator29mem_allocate_inside_tlab_fastEv.exit ], [ %19, %_ZNK12MemAllocator29mem_allocate_inside_tlab_fastEv.exit.thread ], [ null, %20 ], [ %29, %31 ]
  ret ptr %.0
}